target datalayout = "e-m:e-p270:32:32-p271:32:32-p272:64:64-i64:64-i128:128-f80:128-n8:16:32:64-S128"
target triple = "x86_64-pc-linux-gnu"

%struct.darktable_t = type { %struct.dt_codepath_t, i32, i32, ptr, ptr, ptr, ptr, ptr, ptr, ptr, ptr, ptr, ptr, ptr, ptr, ptr, ptr, ptr, ptr, ptr, ptr, ptr, ptr, ptr, ptr, ptr, ptr, ptr, ptr, ptr, [64 x %struct.dt_pthread_mutex_t], %struct.dt_pthread_mutex_t, %struct.dt_pthread_mutex_t, %struct.dt_pthread_mutex_t, %struct.dt_pthread_mutex_t, %struct.dt_pthread_mutex_t, ptr, ptr, ptr, ptr, ptr, ptr, ptr, ptr, ptr, ptr, ptr, ptr, ptr, %struct.dt_lua_state_t, ptr, double, ptr, i32, [47 x i32], i32, i32, ptr, ptr, %struct.dt_sys_resources_t, %struct.dt_backthumb_t, %struct.dt_gimp_t }
%struct.dt_codepath_t = type { i8, [3 x i8] }
%struct.dt_pthread_mutex_t = type { %union.pthread_mutex_t }
%union.pthread_mutex_t = type { %struct.__pthread_mutex_s }
%struct.__pthread_mutex_s = type { i32, i32, i32, i32, i32, i16, i16, %struct.__pthread_internal_list }
%struct.__pthread_internal_list = type { ptr, ptr }
%struct.dt_lua_state_t = type { i32 }
%struct.dt_sys_resources_t = type { i64, i64, ptr, ptr, i32 }
%struct.dt_backthumb_t = type { double, double, i32, i32, i32, i32 }
%struct.dt_gimp_t = type { i32, ptr, ptr, i32, i32 }
%struct.dt_gui_presets_edit_dialog_t = type { ptr, ptr, ptr, ptr, i32, ptr, ptr, ptr, ptr, ptr, ptr, ptr, ptr, ptr, ptr, ptr, ptr, ptr, ptr, ptr, ptr, ptr, ptr, ptr, ptr, i32, [5 x ptr], ptr, ptr }

@darktable = external global %struct.darktable_t, align 8
@.str.43 = private unnamed_addr constant [115 x i8] c"generated/home/dtcxzyw/WorkSpace/Projects/compilers/llvm-opt-benchmark/bench/darktable/darktable/src/gui/presets.c\00", align 1
@stderr = external global ptr, align 8
@.str.45 = private unnamed_addr constant [53 x i8] c"sqlite3 error: %s:%d, function %s(), query \22%s\22: %s\0A\00", align 1
@.str.46 = private unnamed_addr constant [41 x i8] c"[sql] %s:%d, function %s(): prepare \22%s\22\00", align 1
@.str.48 = private unnamed_addr constant [41 x i8] c"sqlite3 error: %s:%d, function %s(): %s\0A\00", align 1
@__FUNCTION__.dt_gui_presets_show_edit_dialog = private unnamed_addr constant [32 x i8] c"dt_gui_presets_show_edit_dialog\00", align 1
@.str.52 = private unnamed_addr constant [64 x i8] c"SELECT operation, op_version FROM data.presets WHERE rowid = ?1\00", align 1

; Function Attrs: nounwind uwtable
define void @dt_gui_presets_show_edit_dialog(ptr noundef %0, ptr noundef %1, i32 noundef %2, ptr noundef %3, ptr noundef %4, i32 noundef %5, i32 noundef %6, i32 noundef %7, ptr noundef %8) #0 {
  %10 = alloca ptr, align 8
  %11 = alloca ptr, align 8
  %12 = alloca i32, align 4
  %13 = alloca ptr, align 8
  %14 = alloca ptr, align 8
  %15 = alloca i32, align 4
  %16 = alloca i32, align 4
  %17 = alloca i32, align 4
  %18 = alloca ptr, align 8
  %19 = alloca ptr, align 8
  %20 = alloca i32, align 4
  %21 = alloca i32, align 4
  %22 = alloca ptr, align 8
  store ptr %0, ptr %10, align 8, !tbaa !11
  store ptr %1, ptr %11, align 8, !tbaa !11
  store i32 %2, ptr %12, align 4, !tbaa !13
  store ptr %3, ptr %13, align 8, !tbaa !17
  store ptr %4, ptr %14, align 8, !tbaa !17
  store i32 %5, ptr %15, align 4, !tbaa !13
  store i32 %6, ptr %16, align 4, !tbaa !13
  store i32 %7, ptr %17, align 4, !tbaa !13
  store ptr %8, ptr %18, align 8, !tbaa !85
  call void @llvm.lifetime.start.p0(i64 8, ptr %19) #11
  br label %23

23:                                               ; preds = %9
  br label %24

24:                                               ; preds = %23
  %25 = load i32, ptr getelementptr inbounds nuw (%struct.darktable_t, ptr @darktable, i32 0, i32 2), align 8, !tbaa !23
  %26 = and i32 256, %25
  %27 = icmp ne i32 %26, 0
  br i1 %27, label %28, label %34

28:                                               ; preds = %24
  %29 = load i32, ptr getelementptr inbounds nuw (%struct.darktable_t, ptr @darktable, i32 0, i32 2), align 8, !tbaa !23
  %30 = xor i32 %29, -1
  %31 = and i32 0, %30
  %32 = icmp ne i32 %31, 0
  br i1 %32, label %34, label %33

33:                                               ; preds = %28
  call void (ptr, ...) @dt_print_ext(ptr noundef @.str.46, ptr noundef @.str.43, i32 noundef 946, ptr noundef @__FUNCTION__.dt_gui_presets_show_edit_dialog, ptr noundef @.str.52)
  br label %34

34:                                               ; preds = %33, %28, %24
  br label %35

35:                                               ; preds = %34
  br label %36

36:                                               ; preds = %35
  call void @llvm.lifetime.start.p0(i64 4, ptr %20) #11
  %37 = load ptr, ptr getelementptr inbounds nuw (%struct.darktable_t, ptr @darktable, i32 0, i32 18), align 8, !tbaa !59
  %38 = call ptr @dt_database_get(ptr noundef %37)
  %39 = call i32 @sqlite3_prepare_v2(ptr noundef %38, ptr noundef @.str.52, i32 noundef -1, ptr noundef %19, ptr noundef null)
  store i32 %39, ptr %20, align 4, !tbaa !13
  %40 = load i32, ptr %20, align 4, !tbaa !13
  %41 = icmp ne i32 %40, 0
  br i1 %41, label %42, label %48

42:                                               ; preds = %36
  %43 = load ptr, ptr @stderr, align 8, !tbaa !60
  %44 = load ptr, ptr getelementptr inbounds nuw (%struct.darktable_t, ptr @darktable, i32 0, i32 18), align 8, !tbaa !59
  %45 = call ptr @dt_database_get(ptr noundef %44)
  %46 = call ptr @sqlite3_errmsg(ptr noundef %45)
  %47 = call i32 (ptr, ptr, ...) @fprintf(ptr noundef %43, ptr noundef @.str.45, ptr noundef @.str.43, i32 noundef 946, ptr noundef @__FUNCTION__.dt_gui_presets_show_edit_dialog, ptr noundef @.str.52, ptr noundef %46) #11
  br label %48

48:                                               ; preds = %42, %36
  call void @llvm.lifetime.end.p0(i64 4, ptr %20) #11
  br label %49

49:                                               ; preds = %48
  br label %50

50:                                               ; preds = %49
  call void @llvm.lifetime.start.p0(i64 4, ptr %21) #11
  %51 = load ptr, ptr %19, align 8, !tbaa !62
  %52 = load i32, ptr %12, align 4, !tbaa !13
  %53 = call i32 @sqlite3_bind_int(ptr noundef %51, i32 noundef 1, i32 noundef %52)
  store i32 %53, ptr %21, align 4, !tbaa !13
  %54 = load i32, ptr %21, align 4, !tbaa !13
  %55 = icmp ne i32 %54, 0
  br i1 %55, label %56, label %62

56:                                               ; preds = %50
  %57 = load ptr, ptr @stderr, align 8, !tbaa !60
  %58 = load ptr, ptr getelementptr inbounds nuw (%struct.darktable_t, ptr @darktable, i32 0, i32 18), align 8, !tbaa !59
  %59 = call ptr @dt_database_get(ptr noundef %58)
  %60 = call ptr @sqlite3_errmsg(ptr noundef %59)
  %61 = call i32 (ptr, ptr, ...) @fprintf(ptr noundef %57, ptr noundef @.str.48, ptr noundef @.str.43, i32 noundef 947, ptr noundef @__FUNCTION__.dt_gui_presets_show_edit_dialog, ptr noundef %60) #11
  br label %62

62:                                               ; preds = %56, %50
  call void @llvm.lifetime.end.p0(i64 4, ptr %21) #11
  %63 = load ptr, ptr %19, align 8, !tbaa !62
  %64 = call i32 @sqlite3_step(ptr noundef %63)
  %65 = icmp eq i32 %64, 100
  br i1 %65, label %66, label %103

66:                                               ; preds = %62
  call void @llvm.lifetime.start.p0(i64 8, ptr %22) #11
  %67 = call noalias ptr @g_malloc0(i64 noundef 264) #13
  store ptr %67, ptr %22, align 8, !tbaa !87
  %68 = load i32, ptr %12, align 4, !tbaa !13
  %69 = load ptr, ptr %22, align 8, !tbaa !87
  %70 = getelementptr inbounds nuw %struct.dt_gui_presets_edit_dialog_t, ptr %69, i32 0, i32 25
  store i32 %68, ptr %70, align 8, !tbaa !89
  %71 = load ptr, ptr %10, align 8, !tbaa !11
  %72 = call noalias ptr @g_strdup(ptr noundef %71)
  %73 = load ptr, ptr %22, align 8, !tbaa !87
  %74 = getelementptr inbounds nuw %struct.dt_gui_presets_edit_dialog_t, ptr %73, i32 0, i32 24
  store ptr %72, ptr %74, align 8, !tbaa !94
  %75 = load ptr, ptr %19, align 8, !tbaa !62
  %76 = call ptr @sqlite3_column_text(ptr noundef %75, i32 noundef 0)
  %77 = call noalias ptr @g_strdup(ptr noundef %76)
  %78 = load ptr, ptr %22, align 8, !tbaa !87
  %79 = getelementptr inbounds nuw %struct.dt_gui_presets_edit_dialog_t, ptr %78, i32 0, i32 3
  store ptr %77, ptr %79, align 8, !tbaa !96
  %80 = load ptr, ptr %19, align 8, !tbaa !62
  %81 = call i32 @sqlite3_column_int(ptr noundef %80, i32 noundef 1)
  %82 = load ptr, ptr %22, align 8, !tbaa !87
  %83 = getelementptr inbounds nuw %struct.dt_gui_presets_edit_dialog_t, ptr %82, i32 0, i32 4
  store i32 %81, ptr %83, align 8, !tbaa !106
  %84 = load ptr, ptr %11, align 8, !tbaa !11
  %85 = call noalias ptr @g_strdup(ptr noundef %84)
  %86 = load ptr, ptr %22, align 8, !tbaa !87
  %87 = getelementptr inbounds nuw %struct.dt_gui_presets_edit_dialog_t, ptr %86, i32 0, i32 2
  store ptr %85, ptr %87, align 8, !tbaa !107
  %88 = load ptr, ptr %13, align 8, !tbaa !17
  %89 = load ptr, ptr %22, align 8, !tbaa !87
  %90 = getelementptr inbounds nuw %struct.dt_gui_presets_edit_dialog_t, ptr %89, i32 0, i32 27
  store ptr %88, ptr %90, align 8, !tbaa !108
  %91 = load ptr, ptr %14, align 8, !tbaa !17
  %92 = load ptr, ptr %22, align 8, !tbaa !87
  %93 = getelementptr inbounds nuw %struct.dt_gui_presets_edit_dialog_t, ptr %92, i32 0, i32 28
  store ptr %91, ptr %93, align 8, !tbaa !109
  %94 = load ptr, ptr %18, align 8, !tbaa !85
  %95 = load ptr, ptr %22, align 8, !tbaa !87
  %96 = getelementptr inbounds nuw %struct.dt_gui_presets_edit_dialog_t, ptr %95, i32 0, i32 0
  store ptr %94, ptr %96, align 8, !tbaa !110
  %97 = load ptr, ptr %19, align 8, !tbaa !62
  %98 = call i32 @sqlite3_finalize(ptr noundef %97)
  %99 = load ptr, ptr %22, align 8, !tbaa !87
  %100 = load i32, ptr %15, align 4, !tbaa !13
  %101 = load i32, ptr %16, align 4, !tbaa !13
  %102 = load i32, ptr %17, align 4, !tbaa !13
  call void @_presets_show_edit_dialog(ptr noundef %99, i32 noundef %100, i32 noundef %101, i32 noundef %102)
  call void @llvm.lifetime.end.p0(i64 8, ptr %22) #11
  br label %106

103:                                              ; preds = %62
  %104 = load ptr, ptr %19, align 8, !tbaa !62
  %105 = call i32 @sqlite3_finalize(ptr noundef %104)
  br label %106

106:                                              ; preds = %103, %66
  call void @llvm.lifetime.end.p0(i64 8, ptr %19) #11
  ret void
}