; Function Attrs: nounwind uwtable
define void @dt_gui_presets_show_edit_dialog(ptr noundef %0, ptr noundef %1, i32 noundef %2, ptr noundef %3, ptr noundef %4, i32 noundef %5, i32 noundef %6, i32 noundef %7, ptr noundef %8) local_unnamed_addr #0 {
  %10 = alloca ptr, align 8
  call void @llvm.lifetime.start.p0(i64 8, ptr nonnull %10) #16
  %11 = load i32, ptr getelementptr inbounds nuw (i8, ptr @darktable, i64 8), align 8, !tbaa !14
  %12 = and i32 %11, 256
  %.not = icmp eq i32 %12, 0
  br i1 %.not, label %14, label %13

13:                                               ; preds = %9
  tail call void (ptr, ...) @dt_print_ext(ptr noundef nonnull @.str.46, ptr noundef nonnull @.str.43, i32 noundef 946, ptr noundef nonnull @__FUNCTION__.dt_gui_presets_show_edit_dialog, ptr noundef nonnull @.str.52) #16
  br label %14

14:                                               ; preds = %13, %9
  %15 = load ptr, ptr getelementptr inbounds nuw (i8, ptr @darktable, i64 136), align 8, !tbaa !53
  %16 = tail call ptr @dt_database_get(ptr noundef %15) #16
  %17 = call i32 @sqlite3_prepare_v2(ptr noundef %16, ptr noundef nonnull @.str.52, i32 noundef -1, ptr noundef nonnull %10, ptr noundef null) #16
  %.not20 = icmp eq i32 %17, 0
  br i1 %.not20, label %24, label %18

18:                                               ; preds = %14
  %19 = load ptr, ptr @stderr, align 8, !tbaa !54
  %20 = load ptr, ptr getelementptr inbounds nuw (i8, ptr @darktable, i64 136), align 8, !tbaa !53
  %21 = call ptr @dt_database_get(ptr noundef %20) #16
  %22 = call ptr @sqlite3_errmsg(ptr noundef %21) #16
  %23 = call i32 (ptr, ptr, ...) @fprintf(ptr noundef %19, ptr noundef nonnull @.str.45, ptr noundef nonnull @.str.43, i32 noundef 946, ptr noundef nonnull @__FUNCTION__.dt_gui_presets_show_edit_dialog, ptr noundef nonnull @.str.52, ptr noundef %22) #17
  br label %24

24:                                               ; preds = %18, %14
  %25 = load ptr, ptr %10, align 8, !tbaa !56
  %26 = call i32 @sqlite3_bind_int(ptr noundef %25, i32 noundef 1, i32 noundef %2) #16
  %.not21 = icmp eq i32 %26, 0
  br i1 %.not21, label %33, label %27

27:                                               ; preds = %24
  %28 = load ptr, ptr @stderr, align 8, !tbaa !54
  %29 = load ptr, ptr getelementptr inbounds nuw (i8, ptr @darktable, i64 136), align 8, !tbaa !53
  %30 = call ptr @dt_database_get(ptr noundef %29) #16
  %31 = call ptr @sqlite3_errmsg(ptr noundef %30) #16
  %32 = call i32 (ptr, ptr, ...) @fprintf(ptr noundef %28, ptr noundef nonnull @.str.48, ptr noundef nonnull @.str.43, i32 noundef 947, ptr noundef nonnull @__FUNCTION__.dt_gui_presets_show_edit_dialog, ptr noundef %31) #17
  br label %33

33:                                               ; preds = %27, %24
  %34 = load ptr, ptr %10, align 8, !tbaa !56
  %35 = call i32 @sqlite3_step(ptr noundef %34) #16
  %36 = icmp eq i32 %35, 100
  br i1 %36, label %37, label %55

37:                                               ; preds = %33
  %38 = call noalias dereferenceable_or_null(264) ptr @g_malloc0(i64 noundef 264) #19
  %39 = getelementptr inbounds nuw i8, ptr %38, i64 200
  store i32 %2, ptr %39, align 8, !tbaa !62
  %40 = call noalias ptr @g_strdup(ptr noundef %0) #16
  %41 = getelementptr inbounds nuw i8, ptr %38, i64 192
  store ptr %40, ptr %41, align 8, !tbaa !69
  %42 = load ptr, ptr %10, align 8, !tbaa !56
  %43 = call ptr @sqlite3_column_text(ptr noundef %42, i32 noundef 0) #16
  %44 = call noalias ptr @g_strdup(ptr noundef %43) #16
  %45 = getelementptr inbounds nuw i8, ptr %38, i64 24
  store ptr %44, ptr %45, align 8, !tbaa !71
  %46 = load ptr, ptr %10, align 8, !tbaa !56
  %47 = call i32 @sqlite3_column_int(ptr noundef %46, i32 noundef 1) #16
  %48 = getelementptr inbounds nuw i8, ptr %38, i64 32
  store i32 %47, ptr %48, align 8, !tbaa !83
  %49 = call noalias ptr @g_strdup(ptr noundef %1) #16
  %50 = getelementptr inbounds nuw i8, ptr %38, i64 16
  store ptr %49, ptr %50, align 8, !tbaa !84
  %51 = getelementptr inbounds nuw i8, ptr %38, i64 248
  store ptr %3, ptr %51, align 8, !tbaa !85
  %52 = getelementptr inbounds nuw i8, ptr %38, i64 256
  store ptr %4, ptr %52, align 8, !tbaa !86
  store ptr %8, ptr %38, align 8, !tbaa !87
  %53 = load ptr, ptr %10, align 8, !tbaa !56
  %54 = call i32 @sqlite3_finalize(ptr noundef %53) #16
  call fastcc void @_presets_show_edit_dialog(ptr noundef nonnull %38, i32 noundef %5, i32 noundef %6, i32 noundef %7)
  br label %58

55:                                               ; preds = %33
  %56 = load ptr, ptr %10, align 8, !tbaa !56
  %57 = call i32 @sqlite3_finalize(ptr noundef %56) #16
  br label %58

58:                                               ; preds = %55, %37
  call void @llvm.lifetime.end.p0(i64 8, ptr nonnull %10) #16
  ret void
}